target datalayout = "e-m:e-p270:32:32-p271:32:32-p272:64:64-i64:64-i128:128-f80:128-n8:16:32:64-S128"
target triple = "x86_64-pc-linux-gnu"

%struct._zend_array = type { %struct._zend_refcounted_h, %union.anon.7, i32, %union.anon.9, i32, i32, i32, i32, i64, ptr }
%struct._zend_refcounted_h = type { i32, %union.anon.6 }
%union.anon.6 = type { i32 }
%union.anon.7 = type { i32 }
%union.anon.9 = type { ptr }
%struct._zend_object_handlers = type { i32, ptr, ptr, ptr, ptr, ptr, ptr, ptr, ptr, ptr, ptr, ptr, ptr, ptr, ptr, ptr, ptr, ptr, ptr, ptr, ptr, ptr, ptr, ptr, ptr }
%struct._zend_class_entry = type { i8, ptr, %union.anon.11, i32, i32, i32, i32, ptr, ptr, ptr, %struct._zend_array, %struct._zend_array, %struct._zend_array, ptr, ptr, ptr, ptr, ptr, ptr, ptr, ptr, ptr, ptr, ptr, ptr, ptr, ptr, ptr, ptr, ptr, ptr, ptr, %union.anon.12, ptr, ptr, ptr, ptr, i32, i32, i32, i32, %union.anon.13, ptr, ptr, ptr, ptr, i32, ptr, ptr, %union.anon.14 }
%union.anon.11 = type { ptr }
%union.anon.12 = type { ptr }
%union.anon.13 = type { ptr }
%union.anon.14 = type { %struct.anon.15 }
%struct.anon.15 = type { ptr, i32, i32 }

@pdo_dbh_ce = external global ptr, align 8
@pdo_dbh_object_handlers = internal global %struct._zend_object_handlers zeroinitializer, align 8
@std_object_handlers = external constant %struct._zend_object_handlers, align 8

; Function Attrs: nounwind uwtable
define hidden void @pdo_dbh_init(i32 noundef %0) #0 {
  %2 = alloca i32, align 4
  store i32 %0, ptr %2, align 4, !tbaa !4
  %3 = call ptr @register_class_PDO()
  store ptr %3, ptr @pdo_dbh_ce, align 8, !tbaa !67
  %4 = load ptr, ptr @pdo_dbh_ce, align 8, !tbaa !67
  %5 = getelementptr inbounds nuw %struct._zend_class_entry, ptr %4, i32 0, i32 32
  store ptr @pdo_dbh_new, ptr %5, align 8, !tbaa !15
  %6 = load ptr, ptr @pdo_dbh_ce, align 8, !tbaa !67
  %7 = getelementptr inbounds nuw %struct._zend_class_entry, ptr %6, i32 0, i32 29
  store ptr @pdo_dbh_object_handlers, ptr %7, align 8, !tbaa !194
  call void @llvm.memcpy.p0.p0.i64(ptr align 8 @pdo_dbh_object_handlers, ptr align 8 @std_object_handlers, i64 200, i1 false)
  store i32 8, ptr @pdo_dbh_object_handlers, align 8, !tbaa !195
  store ptr @pdo_dbh_free_storage, ptr getelementptr inbounds nuw (%struct._zend_object_handlers, ptr @pdo_dbh_object_handlers, i32 0, i32 1), align 8, !tbaa !197
  store ptr null, ptr getelementptr inbounds nuw (%struct._zend_object_handlers, ptr @pdo_dbh_object_handlers, i32 0, i32 3), align 8, !tbaa !198
  store ptr @dbh_method_get, ptr getelementptr inbounds nuw (%struct._zend_object_handlers, ptr @pdo_dbh_object_handlers, i32 0, i32 14), align 8, !tbaa !199
  store ptr @zend_objects_not_comparable, ptr getelementptr inbounds nuw (%struct._zend_object_handlers, ptr @pdo_dbh_object_handlers, i32 0, i32 23), align 8, !tbaa !200
  store ptr @dbh_get_gc, ptr getelementptr inbounds nuw (%struct._zend_object_handlers, ptr @pdo_dbh_object_handlers, i32 0, i32 21), align 8, !tbaa !201
  ret void
}