; Function Attrs: nounwind uwtable
define hidden void @pdo_dbh_init(i32 noundef %0) local_unnamed_addr #0 {
  %2 = tail call fastcc ptr @register_class_PDO()
  store ptr %2, ptr @pdo_dbh_ce, align 8, !tbaa !58
  %3 = getelementptr inbounds nuw i8, ptr %2, i64 384
  store ptr @pdo_dbh_new, ptr %3, align 8, !tbaa !4
  %4 = getelementptr inbounds nuw i8, ptr %2, i64 360
  store ptr @pdo_dbh_object_handlers, ptr %4, align 8, !tbaa !176
  tail call void @llvm.memcpy.p0.p0.i64(ptr noundef nonnull align 8 dereferenceable(200) @pdo_dbh_object_handlers, ptr noundef nonnull align 8 dereferenceable(200) @std_object_handlers, i64 200, i1 false)
  store i32 8, ptr @pdo_dbh_object_handlers, align 8, !tbaa !177
  store ptr @pdo_dbh_free_storage, ptr getelementptr inbounds nuw (i8, ptr @pdo_dbh_object_handlers, i64 8), align 8, !tbaa !179
  store ptr null, ptr getelementptr inbounds nuw (i8, ptr @pdo_dbh_object_handlers, i64 24), align 8, !tbaa !180
  store ptr @dbh_method_get, ptr getelementptr inbounds nuw (i8, ptr @pdo_dbh_object_handlers, i64 112), align 8, !tbaa !181
  store ptr @zend_objects_not_comparable, ptr getelementptr inbounds nuw (i8, ptr @pdo_dbh_object_handlers, i64 184), align 8, !tbaa !182
  store ptr @dbh_get_gc, ptr getelementptr inbounds nuw (i8, ptr @pdo_dbh_object_handlers, i64 168), align 8, !tbaa !183
  ret void
}